; Function Attrs: nounwind uwtable
define zeroext range(i8 0, 2) i8 @l_Lean_Compiler_LCNF_Testing_assertDoesNotContainConstAfter___lambda__1(ptr noundef %0, ptr noundef readnone captures(none) %1, ptr noundef readonly captures(none) %2) local_unnamed_addr #0 {
  %4 = getelementptr inbounds nuw i8, ptr %2, i64 40
  %5 = load ptr, ptr %4, align 8, !tbaa !7
  %6 = ptrtoint ptr %5 to i64
  %7 = and i64 %6, 1
  %.not.i = icmp eq i64 %7, 0
  br i1 %.not.i, label %11, label %8

8:                                                ; preds = %3
  %9 = lshr i64 %6, 1
  %10 = trunc i64 %9 to i32
  br label %lean_obj_tag.exit

11:                                               ; preds = %3
  %12 = getelementptr i8, ptr %5, i64 4
  %.val.i = load i32, ptr %12, align 4
  %13 = lshr i32 %.val.i, 24
  br label %lean_obj_tag.exit

lean_obj_tag.exit:                                ; preds = %8, %11
  %.0.i = phi i32 [ %10, %8 ], [ %13, %11 ]
  %14 = icmp eq i32 %.0.i, 0
  br i1 %14, label %15, label %19

15:                                               ; preds = %lean_obj_tag.exit
  %16 = getelementptr inbounds nuw i8, ptr %5, i64 8
  %17 = load ptr, ptr %16, align 8, !tbaa !7
  %18 = tail call zeroext i8 @l_Lean_Compiler_LCNF_Code_containsConst(ptr noundef %0, ptr noundef %17)
  %. = xor i8 %18, 1
  br label %19

19:                                               ; preds = %lean_obj_tag.exit, %15
  %.1 = phi i8 [ %., %15 ], [ 1, %lean_obj_tag.exit ]
  ret i8 %.1
}